target datalayout = "e-m:e-p270:32:32-p271:32:32-p272:64:64-i64:64-i128:128-f80:128-n8:16:32:64-S128"
target triple = "x86_64-pc-linux-gnu"

%"class.std::ios_base::Init" = type { i8 }
%class.symbol = type { ptr }
%struct.sat_params = type { ptr, %class.params_ref }
%class.params_ref = type { ptr }

$_ZN10sat_paramsC2ERK10params_ref = comdat any

$_ZNK10sat_params3smtEv = comdat any

$_ZNK10sat_params3eufEv = comdat any

$_ZN10sat_paramsD2Ev = comdat any

@_ZStL8__ioinit = internal global %"class.std::ios_base::Init" zeroinitializer, align 1
@__dso_handle = external hidden global i8
@_ZN6symbol4nullE = external global %class.symbol, align 8
@.str = private unnamed_addr constant [4 x i8] c"sat\00", align 1
@.str.1 = private unnamed_addr constant [4 x i8] c"smt\00", align 1
@.str.2 = private unnamed_addr constant [4 x i8] c"euf\00", align 1
@llvm.global_ctors = appending global [1 x { i32, ptr, ptr }] [{ i32, ptr, ptr } { i32 65535, ptr @_GLOBAL__sub_I_smt_tactic.cpp, ptr null }]

; Function Attrs: uwtable
define internal void @__cxx_global_var_init() #0 section ".text.startup" {
  call void @_ZNSt8ios_base4InitC1Ev(ptr noundef nonnull align 1 dereferenceable(1) @_ZStL8__ioinit)
  %1 = call i32 @__cxa_atexit(ptr @_ZNSt8ios_base4InitD1Ev, ptr @_ZStL8__ioinit, ptr @__dso_handle) #3
  ret void
}

declare void @_ZNSt8ios_base4InitC1Ev(ptr noundef nonnull align 1 dereferenceable(1)) unnamed_addr #1

; Function Attrs: nounwind
declare void @_ZNSt8ios_base4InitD1Ev(ptr noundef nonnull align 1 dereferenceable(1)) unnamed_addr #2

; Function Attrs: nounwind
declare i32 @__cxa_atexit(ptr, ptr, ptr) #3

; Function Attrs: mustprogress uwtable
define hidden noundef ptr @_Z13mk_smt_tacticR11ast_managerRK10params_ref(ptr noundef nonnull align 8 dereferenceable(976) %0, ptr noundef nonnull align 8 dereferenceable(8) %1) #4 personality ptr @__gxx_personality_v0 {
  %3 = alloca ptr, align 8
  %4 = alloca ptr, align 8
  %5 = alloca ptr, align 8
  %6 = alloca %struct.sat_params, align 8
  %7 = alloca ptr, align 8
  %8 = alloca i32, align 4
  %9 = alloca i32, align 4
  store ptr %0, ptr %4, align 8, !tbaa !3
  store ptr %1, ptr %5, align 8, !tbaa !8
  call void @llvm.lifetime.start.p0(i64 16, ptr %6) #3
  %10 = load ptr, ptr %5, align 8, !tbaa !8
  call void @_ZN10sat_paramsC2ERK10params_ref(ptr noundef nonnull align 8 dereferenceable(16) %6, ptr noundef nonnull align 8 dereferenceable(8) %10)
  %11 = invoke noundef zeroext i1 @_ZNK10sat_params3smtEv(ptr noundef nonnull align 8 dereferenceable(16) %6)
          to label %12 unwind label %20

12:                                               ; preds = %2
  br i1 %11, label %13, label %24

13:                                               ; preds = %12
  %14 = load ptr, ptr %4, align 8, !tbaa !3
  %15 = load ptr, ptr %5, align 8, !tbaa !8
  %16 = invoke noundef ptr @_Z14mk_smt2_solverR11ast_managerRK10params_refRK6symbol(ptr noundef nonnull align 8 dereferenceable(976) %14, ptr noundef nonnull align 8 dereferenceable(8) %15, ptr noundef nonnull align 8 dereferenceable(8) @_ZN6symbol4nullE)
          to label %17 unwind label %20

17:                                               ; preds = %13
  %18 = invoke noundef ptr @_Z16mk_solver2tacticP6solver(ptr noundef %16)
          to label %19 unwind label %20

19:                                               ; preds = %17
  store ptr %18, ptr %3, align 8
  store i32 1, ptr %9, align 4
  br label %37

20:                                               ; preds = %32, %27, %24, %17, %13, %2
  %21 = landingpad { ptr, i32 }
          cleanup
  %22 = extractvalue { ptr, i32 } %21, 0
  store ptr %22, ptr %7, align 8
  %23 = extractvalue { ptr, i32 } %21, 1
  store i32 %23, ptr %8, align 4
  call void @_ZN10sat_paramsD2Ev(ptr noundef nonnull align 8 dereferenceable(16) %6) #3
  call void @llvm.lifetime.end.p0(i64 16, ptr %6) #3
  br label %39

24:                                               ; preds = %12
  %25 = invoke noundef zeroext i1 @_ZNK10sat_params3eufEv(ptr noundef nonnull align 8 dereferenceable(16) %6)
          to label %26 unwind label %20

26:                                               ; preds = %24
  br i1 %25, label %27, label %32

27:                                               ; preds = %26
  %28 = load ptr, ptr %4, align 8, !tbaa !3
  %29 = load ptr, ptr %5, align 8, !tbaa !8
  %30 = invoke noundef ptr @_Z13mk_sat_tacticR11ast_managerRK10params_ref(ptr noundef nonnull align 8 dereferenceable(976) %28, ptr noundef nonnull align 8 dereferenceable(8) %29)
          to label %31 unwind label %20

31:                                               ; preds = %27
  store ptr %30, ptr %3, align 8
  store i32 1, ptr %9, align 4
  br label %37

32:                                               ; preds = %26
  %33 = load ptr, ptr %4, align 8, !tbaa !3
  %34 = load ptr, ptr %5, align 8, !tbaa !8
  %35 = invoke noundef ptr @_Z18mk_smt_tactic_coreR11ast_managerRK10params_refRK6symbol(ptr noundef nonnull align 8 dereferenceable(976) %33, ptr noundef nonnull align 8 dereferenceable(8) %34, ptr noundef nonnull align 8 dereferenceable(8) @_ZN6symbol4nullE)
          to label %36 unwind label %20

36:                                               ; preds = %32
  store ptr %35, ptr %3, align 8
  store i32 1, ptr %9, align 4
  br label %37

37:                                               ; preds = %36, %31, %19
  call void @_ZN10sat_paramsD2Ev(ptr noundef nonnull align 8 dereferenceable(16) %6) #3
  call void @llvm.lifetime.end.p0(i64 16, ptr %6) #3
  %38 = load ptr, ptr %3, align 8
  ret ptr %38

39:                                               ; preds = %20
  %40 = load ptr, ptr %7, align 8
  %41 = load i32, ptr %8, align 4
  %42 = insertvalue { ptr, i32 } poison, ptr %40, 0
  %43 = insertvalue { ptr, i32 } %42, i32 %41, 1
  resume { ptr, i32 } %43
}

; Function Attrs: nocallback nofree nosync nounwind willreturn memory(argmem: readwrite)
declare void @llvm.lifetime.start.p0(i64 immarg, ptr captures(none)) #5

; Function Attrs: mustprogress uwtable
define linkonce_odr hidden void @_ZN10sat_paramsC2ERK10params_ref(ptr noundef nonnull align 8 dereferenceable(16) %0, ptr noundef nonnull align 8 dereferenceable(8) %1) unnamed_addr #4 comdat align 2 {
  %3 = alloca ptr, align 8
  %4 = alloca ptr, align 8
  store ptr %0, ptr %3, align 8, !tbaa !10
  store ptr %1, ptr %4, align 8, !tbaa !8
  %5 = load ptr, ptr %3, align 8
  %6 = getelementptr inbounds nuw %struct.sat_params, ptr %5, i32 0, i32 0
  %7 = load ptr, ptr %4, align 8, !tbaa !8
  store ptr %7, ptr %6, align 8, !tbaa !8
  %8 = getelementptr inbounds nuw %struct.sat_params, ptr %5, i32 0, i32 1
  call void @_ZN7gparams10get_moduleEPKc(ptr dead_on_unwind writable sret(%class.params_ref) align 8 %8, ptr noundef @.str)
  ret void
}

; Function Attrs: mustprogress uwtable
define linkonce_odr hidden noundef zeroext i1 @_ZNK10sat_params3smtEv(ptr noundef nonnull align 8 dereferenceable(16) %0) #4 comdat align 2 {
  %2 = alloca ptr, align 8
  store ptr %0, ptr %2, align 8, !tbaa !10
  %3 = load ptr, ptr %2, align 8
  %4 = getelementptr inbounds nuw %struct.sat_params, ptr %3, i32 0, i32 0
  %5 = load ptr, ptr %4, align 8, !tbaa !12
  %6 = getelementptr inbounds nuw %struct.sat_params, ptr %3, i32 0, i32 1
  %7 = call noundef zeroext i1 @_ZNK10params_ref8get_boolEPKcRKS_b(ptr noundef nonnull align 8 dereferenceable(8) %5, ptr noundef @.str.1, ptr noundef nonnull align 8 dereferenceable(8) %6, i1 noundef zeroext false)
  ret i1 %7
}

declare i32 @__gxx_personality_v0(...)

declare noundef ptr @_Z16mk_solver2tacticP6solver(ptr noundef) #1

declare noundef ptr @_Z14mk_smt2_solverR11ast_managerRK10params_refRK6symbol(ptr noundef nonnull align 8 dereferenceable(976), ptr noundef nonnull align 8 dereferenceable(8), ptr noundef nonnull align 8 dereferenceable(8)) #1

; Function Attrs: mustprogress uwtable
define linkonce_odr hidden noundef zeroext i1 @_ZNK10sat_params3eufEv(ptr noundef nonnull align 8 dereferenceable(16) %0) #4 comdat align 2 {
  %2 = alloca ptr, align 8
  store ptr %0, ptr %2, align 8, !tbaa !10
  %3 = load ptr, ptr %2, align 8
  %4 = getelementptr inbounds nuw %struct.sat_params, ptr %3, i32 0, i32 0
  %5 = load ptr, ptr %4, align 8, !tbaa !12
  %6 = getelementptr inbounds nuw %struct.sat_params, ptr %3, i32 0, i32 1
  %7 = call noundef zeroext i1 @_ZNK10params_ref8get_boolEPKcRKS_b(ptr noundef nonnull align 8 dereferenceable(8) %5, ptr noundef @.str.2, ptr noundef nonnull align 8 dereferenceable(8) %6, i1 noundef zeroext false)
  ret i1 %7
}

declare noundef ptr @_Z13mk_sat_tacticR11ast_managerRK10params_ref(ptr noundef nonnull align 8 dereferenceable(976), ptr noundef nonnull align 8 dereferenceable(8)) #1

declare noundef ptr @_Z18mk_smt_tactic_coreR11ast_managerRK10params_refRK6symbol(ptr noundef nonnull align 8 dereferenceable(976), ptr noundef nonnull align 8 dereferenceable(8), ptr noundef nonnull align 8 dereferenceable(8)) #1

; Function Attrs: inlinehint mustprogress nounwind uwtable
define linkonce_odr hidden void @_ZN10sat_paramsD2Ev(ptr noundef nonnull align 8 dereferenceable(16) %0) unnamed_addr #6 comdat align 2 {
  %2 = alloca ptr, align 8
  store ptr %0, ptr %2, align 8, !tbaa !10
  %3 = load ptr, ptr %2, align 8
  %4 = getelementptr inbounds nuw %struct.sat_params, ptr %3, i32 0, i32 1
  call void @_ZN10params_refD1Ev(ptr noundef nonnull align 8 dereferenceable(8) %4) #3
  ret void
}

; Function Attrs: nocallback nofree nosync nounwind willreturn memory(argmem: readwrite)
declare void @llvm.lifetime.end.p0(i64 immarg, ptr captures(none)) #5

; Function Attrs: mustprogress uwtable
define hidden noundef ptr @_Z19mk_smt_tactic_usingR11ast_managerbRK10params_ref(ptr noundef nonnull align 8 dereferenceable(976) %0, i1 noundef zeroext %1, ptr noundef nonnull align 8 dereferenceable(8) %2) #4 personality ptr @__gxx_personality_v0 {
  %4 = alloca ptr, align 8
  %5 = alloca i8, align 1
  %6 = alloca ptr, align 8
  %7 = alloca %struct.sat_params, align 8
  %8 = alloca ptr, align 8
  %9 = alloca i32, align 4
  store ptr %0, ptr %4, align 8, !tbaa !3
  %10 = zext i1 %1 to i8
  store i8 %10, ptr %5, align 1, !tbaa !16
  store ptr %2, ptr %6, align 8, !tbaa !8
  call void @llvm.lifetime.start.p0(i64 16, ptr %7) #3
  %11 = load ptr, ptr %6, align 8, !tbaa !8
  call void @_ZN10sat_paramsC2ERK10params_ref(ptr noundef nonnull align 8 dereferenceable(16) %7, ptr noundef nonnull align 8 dereferenceable(8) %11)
  %12 = invoke noundef zeroext i1 @_ZNK10sat_params3eufEv(ptr noundef nonnull align 8 dereferenceable(16) %7)
          to label %13 unwind label %28

13:                                               ; preds = %3
  br i1 %12, label %14, label %19

14:                                               ; preds = %13
  %15 = load ptr, ptr %4, align 8, !tbaa !3
  %16 = load ptr, ptr %6, align 8, !tbaa !8
  %17 = invoke noundef ptr @_Z13mk_sat_tacticR11ast_managerRK10params_ref(ptr noundef nonnull align 8 dereferenceable(976) %15, ptr noundef nonnull align 8 dereferenceable(8) %16)
          to label %18 unwind label %28

18:                                               ; preds = %14
  br label %26

19:                                               ; preds = %13
  %20 = load ptr, ptr %4, align 8, !tbaa !3
  %21 = load i8, ptr %5, align 1, !tbaa !16, !range !18, !noundef !19
  %22 = trunc i8 %21 to i1
  %23 = load ptr, ptr %6, align 8, !tbaa !8
  %24 = invoke noundef ptr @_Z24mk_smt_tactic_core_usingR11ast_managerbRK10params_ref(ptr noundef nonnull align 8 dereferenceable(976) %20, i1 noundef zeroext %22, ptr noundef nonnull align 8 dereferenceable(8) %23)
          to label %25 unwind label %28

25:                                               ; preds = %19
  br label %26

26:                                               ; preds = %25, %18
  %27 = phi ptr [ %17, %18 ], [ %24, %25 ]
  call void @_ZN10sat_paramsD2Ev(ptr noundef nonnull align 8 dereferenceable(16) %7) #3
  call void @llvm.lifetime.end.p0(i64 16, ptr %7) #3
  ret ptr %27

28:                                               ; preds = %19, %14, %3
  %29 = landingpad { ptr, i32 }
          cleanup
  %30 = extractvalue { ptr, i32 } %29, 0
  store ptr %30, ptr %8, align 8
  %31 = extractvalue { ptr, i32 } %29, 1
  store i32 %31, ptr %9, align 4
  call void @_ZN10sat_paramsD2Ev(ptr noundef nonnull align 8 dereferenceable(16) %7) #3
  call void @llvm.lifetime.end.p0(i64 16, ptr %7) #3
  br label %32

32:                                               ; preds = %28
  %33 = load ptr, ptr %8, align 8
  %34 = load i32, ptr %9, align 4
  %35 = insertvalue { ptr, i32 } poison, ptr %33, 0
  %36 = insertvalue { ptr, i32 } %35, i32 %34, 1
  resume { ptr, i32 } %36
}

declare noundef ptr @_Z24mk_smt_tactic_core_usingR11ast_managerbRK10params_ref(ptr noundef nonnull align 8 dereferenceable(976), i1 noundef zeroext, ptr noundef nonnull align 8 dereferenceable(8)) #1

declare void @_ZN7gparams10get_moduleEPKc(ptr dead_on_unwind writable sret(%class.params_ref) align 8, ptr noundef) #1

declare noundef zeroext i1 @_ZNK10params_ref8get_boolEPKcRKS_b(ptr noundef nonnull align 8 dereferenceable(8), ptr noundef, ptr noundef nonnull align 8 dereferenceable(8), i1 noundef zeroext) #1

; Function Attrs: nounwind
declare void @_ZN10params_refD1Ev(ptr noundef nonnull align 8 dereferenceable(8)) unnamed_addr #2

; Function Attrs: uwtable
define internal void @_GLOBAL__sub_I_smt_tactic.cpp() #0 section ".text.startup" {
  call void @__cxx_global_var_init()
  ret void
}


!llvm.linker.options = !{}
!llvm.module.flags = !{!0, !1, !2}

!0 = !{i32 1, !"wchar_size", i32 4}
!1 = !{i32 8, !"PIC Level", i32 2}
!2 = !{i32 7, !"uwtable", i32 2}
!3 = !{!4, !4, i64 0}
!4 = !{!"p1 _ZTS11ast_manager", !5, i64 0}
!5 = !{!"any pointer", !6, i64 0}
!6 = !{!"omnipotent char", !7, i64 0}
!7 = !{!"Simple C++ TBAA"}
!8 = !{!9, !9, i64 0}
!9 = !{!"p1 _ZTS10params_ref", !5, i64 0}
!10 = !{!11, !11, i64 0}
!11 = !{!"p1 _ZTS10sat_params", !5, i64 0}
!12 = !{!13, !9, i64 0}
!13 = !{!"_ZTS10sat_params", !9, i64 0, !14, i64 8}
!14 = !{!"_ZTS10params_ref", !15, i64 0}
!15 = !{!"p1 _ZTS6params", !5, i64 0}
!16 = !{!17, !17, i64 0}
!17 = !{!"bool", !6, i64 0}
!18 = !{i8 0, i8 2}
!19 = !{}
