; ModuleID = 'bench/z3/original/smt_tactic.ll'
source_filename = "bench/z3/original/smt_tactic.ll"
target datalayout = "e-m:e-p270:32:32-p271:32:32-p272:64:64-i64:64-i128:128-f80:128-n8:16:32:64-S128"
target triple = "x86_64-pc-linux-gnu"

%"class.std::ios_base::Init" = type { i8 }
%class.symbol = type { ptr }
%struct.sat_params = type { ptr, %class.params_ref }
%class.params_ref = type { ptr }

@_ZStL8__ioinit = internal global %"class.std::ios_base::Init" zeroinitializer, align 1
@__dso_handle = external hidden global i8
@_ZN6symbol4nullE = external global %class.symbol, align 8
@.str = private unnamed_addr constant [4 x i8] c"sat\00", align 1
@.str.1 = private unnamed_addr constant [4 x i8] c"smt\00", align 1
@.str.2 = private unnamed_addr constant [4 x i8] c"euf\00", align 1
@llvm.global_ctors = appending global [1 x { i32, ptr, ptr }] [{ i32, ptr, ptr } { i32 65535, ptr @_GLOBAL__sub_I_smt_tactic.cpp, ptr null }]

declare void @_ZNSt8ios_base4InitC1Ev(ptr noundef nonnull align 1 dereferenceable(1)) unnamed_addr #0

; Function Attrs: nounwind
declare void @_ZNSt8ios_base4InitD1Ev(ptr noundef nonnull align 1 dereferenceable(1)) unnamed_addr #1

; Function Attrs: nofree nounwind
declare i32 @__cxa_atexit(ptr, ptr, ptr) local_unnamed_addr #2

; Function Attrs: mustprogress uwtable
define hidden noundef ptr @_Z13mk_smt_tacticR11ast_managerRK10params_ref(ptr noundef nonnull align 8 dereferenceable(976) %0, ptr noundef nonnull align 8 dereferenceable(8) %1) local_unnamed_addr #3 personality ptr @__gxx_personality_v0 {
  %3 = alloca %struct.sat_params, align 8
  call void @llvm.lifetime.start.p0(i64 16, ptr nonnull %3) #6
  store ptr %1, ptr %3, align 8, !tbaa !3
  %4 = getelementptr inbounds nuw i8, ptr %3, i64 8
  call void @_ZN7gparams10get_moduleEPKc(ptr dead_on_unwind nonnull writable sret(%class.params_ref) align 8 %4, ptr noundef nonnull @.str)
  %5 = load ptr, ptr %3, align 8, !tbaa !8
  %6 = invoke noundef zeroext i1 @_ZNK10params_ref8get_boolEPKcRKS_b(ptr noundef nonnull align 8 dereferenceable(8) %5, ptr noundef nonnull @.str.1, ptr noundef nonnull align 8 dereferenceable(8) %4, i1 noundef zeroext false)
          to label %_ZNK10sat_params3smtEv.exit unwind label %11

_ZNK10sat_params3smtEv.exit:                      ; preds = %2
  br i1 %6, label %7, label %13

7:                                                ; preds = %_ZNK10sat_params3smtEv.exit
  %8 = invoke noundef ptr @_Z14mk_smt2_solverR11ast_managerRK10params_refRK6symbol(ptr noundef nonnull align 8 dereferenceable(976) %0, ptr noundef nonnull align 8 dereferenceable(8) %1, ptr noundef nonnull align 8 dereferenceable(8) @_ZN6symbol4nullE)
          to label %9 unwind label %11

9:                                                ; preds = %7
  %10 = invoke noundef ptr @_Z16mk_solver2tacticP6solver(ptr noundef %8)
          to label %20 unwind label %11

11:                                               ; preds = %13, %2, %18, %16, %9, %7
  %12 = landingpad { ptr, i32 }
          cleanup
  call void @_ZN10params_refD1Ev(ptr noundef nonnull align 8 dereferenceable(8) %4) #6
  call void @llvm.lifetime.end.p0(i64 16, ptr nonnull %3) #6
  resume { ptr, i32 } %12

13:                                               ; preds = %_ZNK10sat_params3smtEv.exit
  %14 = load ptr, ptr %3, align 8, !tbaa !8
  %15 = invoke noundef zeroext i1 @_ZNK10params_ref8get_boolEPKcRKS_b(ptr noundef nonnull align 8 dereferenceable(8) %14, ptr noundef nonnull @.str.2, ptr noundef nonnull align 8 dereferenceable(8) %4, i1 noundef zeroext false)
          to label %_ZNK10sat_params3eufEv.exit unwind label %11

_ZNK10sat_params3eufEv.exit:                      ; preds = %13
  br i1 %15, label %16, label %18

16:                                               ; preds = %_ZNK10sat_params3eufEv.exit
  %17 = invoke noundef ptr @_Z13mk_sat_tacticR11ast_managerRK10params_ref(ptr noundef nonnull align 8 dereferenceable(976) %0, ptr noundef nonnull align 8 dereferenceable(8) %1)
          to label %20 unwind label %11

18:                                               ; preds = %_ZNK10sat_params3eufEv.exit
  %19 = invoke noundef ptr @_Z18mk_smt_tactic_coreR11ast_managerRK10params_refRK6symbol(ptr noundef nonnull align 8 dereferenceable(976) %0, ptr noundef nonnull align 8 dereferenceable(8) %1, ptr noundef nonnull align 8 dereferenceable(8) @_ZN6symbol4nullE)
          to label %20 unwind label %11

20:                                               ; preds = %18, %16, %9
  %.0 = phi ptr [ %10, %9 ], [ %17, %16 ], [ %19, %18 ]
  call void @_ZN10params_refD1Ev(ptr noundef nonnull align 8 dereferenceable(8) %4) #6
  call void @llvm.lifetime.end.p0(i64 16, ptr nonnull %3) #6
  ret ptr %.0
}

; Function Attrs: mustprogress nocallback nofree nosync nounwind willreturn memory(argmem: readwrite)
declare void @llvm.lifetime.start.p0(i64 immarg, ptr captures(none)) #4

declare i32 @__gxx_personality_v0(...)

declare noundef ptr @_Z16mk_solver2tacticP6solver(ptr noundef) local_unnamed_addr #0

declare noundef ptr @_Z14mk_smt2_solverR11ast_managerRK10params_refRK6symbol(ptr noundef nonnull align 8 dereferenceable(976), ptr noundef nonnull align 8 dereferenceable(8), ptr noundef nonnull align 8 dereferenceable(8)) local_unnamed_addr #0

declare noundef ptr @_Z13mk_sat_tacticR11ast_managerRK10params_ref(ptr noundef nonnull align 8 dereferenceable(976), ptr noundef nonnull align 8 dereferenceable(8)) local_unnamed_addr #0

declare noundef ptr @_Z18mk_smt_tactic_coreR11ast_managerRK10params_refRK6symbol(ptr noundef nonnull align 8 dereferenceable(976), ptr noundef nonnull align 8 dereferenceable(8), ptr noundef nonnull align 8 dereferenceable(8)) local_unnamed_addr #0

; Function Attrs: mustprogress nocallback nofree nosync nounwind willreturn memory(argmem: readwrite)
declare void @llvm.lifetime.end.p0(i64 immarg, ptr captures(none)) #4

; Function Attrs: mustprogress uwtable
define hidden noundef ptr @_Z19mk_smt_tactic_usingR11ast_managerbRK10params_ref(ptr noundef nonnull align 8 dereferenceable(976) %0, i1 noundef zeroext %1, ptr noundef nonnull align 8 dereferenceable(8) %2) local_unnamed_addr #3 personality ptr @__gxx_personality_v0 {
  %4 = alloca %struct.sat_params, align 8
  call void @llvm.lifetime.start.p0(i64 16, ptr nonnull %4) #6
  store ptr %2, ptr %4, align 8, !tbaa !3
  %5 = getelementptr inbounds nuw i8, ptr %4, i64 8
  call void @_ZN7gparams10get_moduleEPKc(ptr dead_on_unwind nonnull writable sret(%class.params_ref) align 8 %5, ptr noundef nonnull @.str)
  %6 = load ptr, ptr %4, align 8, !tbaa !8
  %7 = invoke noundef zeroext i1 @_ZNK10params_ref8get_boolEPKcRKS_b(ptr noundef nonnull align 8 dereferenceable(8) %6, ptr noundef nonnull @.str.2, ptr noundef nonnull align 8 dereferenceable(8) %5, i1 noundef zeroext false)
          to label %_ZNK10sat_params3eufEv.exit unwind label %14

_ZNK10sat_params3eufEv.exit:                      ; preds = %3
  br i1 %7, label %8, label %10

8:                                                ; preds = %_ZNK10sat_params3eufEv.exit
  %9 = invoke noundef ptr @_Z13mk_sat_tacticR11ast_managerRK10params_ref(ptr noundef nonnull align 8 dereferenceable(976) %0, ptr noundef nonnull align 8 dereferenceable(8) %2)
          to label %12 unwind label %14

10:                                               ; preds = %_ZNK10sat_params3eufEv.exit
  %11 = invoke noundef ptr @_Z24mk_smt_tactic_core_usingR11ast_managerbRK10params_ref(ptr noundef nonnull align 8 dereferenceable(976) %0, i1 noundef zeroext %1, ptr noundef nonnull align 8 dereferenceable(8) %2)
          to label %12 unwind label %14

12:                                               ; preds = %10, %8
  %13 = phi ptr [ %9, %8 ], [ %11, %10 ]
  call void @_ZN10params_refD1Ev(ptr noundef nonnull align 8 dereferenceable(8) %5) #6
  call void @llvm.lifetime.end.p0(i64 16, ptr nonnull %4) #6
  ret ptr %13

14:                                               ; preds = %3, %10, %8
  %15 = landingpad { ptr, i32 }
          cleanup
  call void @_ZN10params_refD1Ev(ptr noundef nonnull align 8 dereferenceable(8) %5) #6
  call void @llvm.lifetime.end.p0(i64 16, ptr nonnull %4) #6
  resume { ptr, i32 } %15
}

declare noundef ptr @_Z24mk_smt_tactic_core_usingR11ast_managerbRK10params_ref(ptr noundef nonnull align 8 dereferenceable(976), i1 noundef zeroext, ptr noundef nonnull align 8 dereferenceable(8)) local_unnamed_addr #0

declare void @_ZN7gparams10get_moduleEPKc(ptr dead_on_unwind writable sret(%class.params_ref) align 8, ptr noundef) local_unnamed_addr #0

declare noundef zeroext i1 @_ZNK10params_ref8get_boolEPKcRKS_b(ptr noundef nonnull align 8 dereferenceable(8), ptr noundef, ptr noundef nonnull align 8 dereferenceable(8), i1 noundef zeroext) local_unnamed_addr #0

; Function Attrs: nounwind
declare void @_ZN10params_refD1Ev(ptr noundef nonnull align 8 dereferenceable(8)) unnamed_addr #1

; Function Attrs: uwtable
define internal void @_GLOBAL__sub_I_smt_tactic.cpp() #5 section ".text.startup" {
  tail call void @_ZNSt8ios_base4InitC1Ev(ptr noundef nonnull align 1 dereferenceable(1) @_ZStL8__ioinit)
  %1 = tail call i32 @__cxa_atexit(ptr nonnull @_ZNSt8ios_base4InitD1Ev, ptr nonnull @_ZStL8__ioinit, ptr nonnull @__dso_handle) #6
  ret void
}


!llvm.linker.options = !{}
!llvm.module.flags = !{!0, !1, !2}

!0 = !{i32 1, !"wchar_size", i32 4}
!1 = !{i32 8, !"PIC Level", i32 2}
!2 = !{i32 7, !"uwtable", i32 2}
!3 = !{!4, !4, i64 0}
!4 = !{!"p1 _ZTS10params_ref", !5, i64 0}
!5 = !{!"any pointer", !6, i64 0}
!6 = !{!"omnipotent char", !7, i64 0}
!7 = !{!"Simple C++ TBAA"}
!8 = !{!9, !4, i64 0}
!9 = !{!"_ZTS10sat_params", !4, i64 0, !10, i64 8}
!10 = !{!"_ZTS10params_ref", !11, i64 0}
!11 = !{!"p1 _ZTS6params", !5, i64 0}
